(lp1
I20905
aI22932
aI28145
aI28036
aI28191
aI22931
aI28035
aI28190
aI21449
aI22930
aI28034
aI27461
aI22929
aI23216
aI25388
aI28033
aI28403
aI27285
aI27415
aI23730
aI25338
aI25387
aI28032
aI28402
aI27284
aI27414
aI33574
aI23729
aI25386
aI28401
aI26920
aI27123
aI27303
aI35982
aI23728
aI22598
aI25385
aI27675
aI28112
aI27095
aI27122
aI27282
aI27412
aI21334
aI22727
aI22710
aI25466
aI25384
aI27674
aI28415
aI27411
aI22726
aI23155
aI25559
aI25514
aI27673
aI28126
aI28175
aI23154
aI25464
aI25558
aI25513
aI27672
aI27894
aI28369
aI28413
aI28462
aI33569
aI25447
aI25512
aI27655
aI27812
aI33568
aI25556
aI27811
aI21044
aI21174
aI24363
aI25445
aI27810
aI28171
aI28410
aI26934
aI22712
aI25481
aI28021
aI28170
aI26933
aI24203
aI24325
aI22926
aI25480
aI24324
aI21170
aI23683
aI22804
aI25526
aI27779
aI28509
aI20901
aI21169
aI23682
aI23134
aI28508
aI28557
aI21168
aI23681
aI22691
aI25524
aI28425
aI27436
aI20899
aI21029
aI21472
aI22663
aI28264
aI33189
aI36024
aI20898
aI21487
aI23809
aI24531
aI22901
aI23131
aI25540
aI27876
aI28219
aI28635
aI27276
aI20875
aI20897
aI21486
aI22688
aI22900
aI23130
aI28218
aI28470
aI20874
aI20896
aI21485
aI23048
aI27874
aI28217
aI36534
aI20873
aI20911
aI21484
aI22610
aI22898
aI25381
aI28521
aI20910
aI23691
aI22629
aI22816
aI25331
aI25250
aI25380
aI28362
aI28520
aI20919
aI23690
aI23387
aI25379
aI26854
aI20918
aI22627
aI25378
aI27886
aI26853
aI1955
aI20917
aI22671
aI25459
aI25377
aI27500
aI23743
aI22670
aI25376
aI27665
aI27499
aI22579
aI27664
aI28072
aI28283
aI27498
aI21450
aI23786
aI22595
aI25347
aI27679
aI27794
aI28282
aI27295
aI27497
aI27453
aI23495
aI25346
aI27682
aI28281
aI28200
aI27294
aI27496
aI22878
aI25345
aI27677
aI28123
aI27293
aI21503
aI22877
aI23158
aI25344
aI27761
aI27676
aI28122
aI27292
aI23157
aI25359
aI25555
aI27809
aI28409
aI28292
aI21501
aI24065
aI25358
aI27808
aI28120
aI28169
aI28408
aI27290
aI27420
aI33292
aI21500
aI24064
aI27823
aI28103
aI28168
aI28501
aI27431
aI33291
aI33530
aI36306
aI23718
aI23864
aI24323
aI25266
aI27822
aI28102
aI28259
aI27418
aI36305
aI21129
aI24192
aI24322
aI25265
aI25567
aI27821
aI28101
aI27417
aI21497
aI24207
aI24321
aI25264
aI25566
aI27820
aI28100
aI27416
aI36525
aI21053
aI23834
aI24206
aI22557
aI23542
aI25568
aI28099
aI28387
aI27399
aI27435
aI36524
aI23833
aI24205
aI22844
aI23541
aI25583
aI25482
aI27398
aI23832
aI24492
aI22815
aI28029
aI28545
aI27397
aI24491
aI28469
aI27396
aI33675
aI22703
aI22813
aI22841
aI27607
aI31104
aI21178
aI21483
aI24052
aI22702
aI28558
aI31119
aI21177
aI22701
aI27867
aI27319
aI36002
aI20908
aI21176
aI23689
aI23811
aI24125
aI22680
aI22700
aI22810
aI27866
aI28483
aI27318
aI20907
aI21159
aI22809
aI25263
aI20876
aI21399
a.