(lp1
(lp2
I20876
a(lp3
I20875
aI20919
aI23834
aI27607
aaa(lp4
I20875
a(lp5
I20876
aI20874
aI33675
aaa(lp6
I20874
a(lp7
I20876
aI20875
aaa(lp8
I20873
a(lp9
I20876
aI20875
aaa(lp10
I20919
a(lp11
I20918
aI23730
aI24203
aaa(lp12
I20918
a(lp13
I23730
aaa(lp14
I20901
a(lp15
I22557
aaa(lp16
I20898
a(lp17
I20899
aaa(lp18
I20897
a(lp19
I20911
aaa(lp20
I20896
a(lp21
I20901
aI20898
aI22691
aaa(lp22
I20911
a(lp23
I20896
aaa(lp24
I20910
a(lp25
I20896
aI20908
aaa(lp26
I20908
a(lp27
I20907
aI24206
aI27285
aaa(lp28
I20907
a(lp29
I20905
aI27284
aI27282
aaa(lp30
I21044
a(lp31
I33189
aaa(lp32
I21053
a(lp33
I25385
aaa(lp34
I21029
a(lp35
I33530
aaa(lp36
I21129
a(lp37
I28072
aI28200
aaa(lp38
I21174
a(lp39
I27808
aaa(lp40
I21170
a(lp41
I24363
aaa(lp42
I21169
a(lp43
I21450
aI23387
aaa(lp44
I21168
a(lp45
I21178
aI21334
aI24363
aI22930
aaa(lp46
I21178
a(lp47
I21170
aI21177
aI21176
aI21159
aaa(lp48
I21177
a(lp49
I21176
aI28120
aaa(lp50
I21176
a(lp51
I21178
aI21177
aI21159
aaa(lp52
I21159
a(lp53
I21170
aI21178
aI21334
aI24363
aI22930
aaa(lp54
I21334
a(lp55
I21168
aI23718
aI24125
aI27123
aI31119
aaa(lp56
I21450
a(lp57
I21169
aI21449
aI24363
aI28219
aaa(lp58
I21449
a(lp59
I21178
aI21334
aI24363
aI22930
aaa(lp60
I21503
a(lp61
I33292
aaa(lp62
I21501
a(lp63
I33530
aaa(lp64
I21500
a(lp65
I21503
aaa(lp66
I21497
a(lp67
I21450
aI23387
aI28218
aaa(lp68
I21472
a(lp69
I21487
aI21486
aI21485
aaa(lp70
I21487
a(lp71
I21486
aI21484
aI22932
aaa(lp72
I21486
a(lp73
I21472
aI21487
aI21485
aaa(lp74
I21485
a(lp75
I21472
aaa(lp76
I21484
a(lp77
I21483
aI22816
aI23495
aI25331
aI25263
aaa(lp78
I21483
a(lp79
I25331
aaa(lp80
I21399
a(lp81
I23387
aaa(lp82
I23786
a(lp83
I23834
aI22712
aI27461
aaa(lp84
I23683
a(lp85
I23682
aaa(lp86
I23682
a(lp87
I23681
aaa(lp88
I23681
a(lp89
I25482
aI28282
aaa(lp90
I23691
a(lp91
I23690
aaa(lp92
I23690
a(lp93
I23689
aaa(lp94
I23689
a(lp95
I24321
aI27436
aaa(lp96
I23730
a(lp97
I20873
aI20919
aI24203
aaa(lp98
I23729
a(lp99
I23728
aaa(lp100
I23728
a(lp101
I27399
aaa(lp102
I23743
a(lp103
I27399
aaa(lp104
I23718
a(lp105
I31104
aaa(lp106
I23834
a(lp107
I20917
aI23786
aI23811
aI23809
aaa(lp108
I23833
a(lp109
I23832
aaa(lp110
I23832
a(lp111
I27396
aaa(lp112
I23864
a(lp113
I27295
aI27290
aaa(lp114
I24052
a(lp115
I25464
aaa(lp116
I24065
a(lp117
I24064
aaa(lp118
I24064
a(lp119
I22841
aI28462
aaa(lp120
I24125
a(lp121
I31104
aaa(lp122
I24192
a(lp123
I24207
aI24206
aI24205
aaa(lp124
I24207
a(lp125
I24206
aI27285
aaa(lp126
I24206
a(lp127
I24192
aI24207
aI24205
aaa(lp128
I24205
a(lp129
I24192
aaa(lp130
I24203
a(lp131
I20875
aI20919
aI23834
aI27607
aaa(lp132
I24325
a(lp133
I24324
aaa(lp134
I24324
a(lp135
I24323
aaa(lp136
I24323
a(lp137
I27497
aaa(lp138
I24322
a(lp139
I36305
aaa(lp140
I24321
a(lp141
I20875
aI20919
aI23834
aI27607
aaa(lp142
I24363
a(lp143
I21169
aI21450
aI21449
aI28219
aaa(lp144
I24531
a(lp145
I22898
aI28175
aaa(lp146
I24492
a(lp147
I28169
aaa(lp148
I24491
a(lp149
I28469
aaa(lp150
I22610
a(lp151
I28200
aaa(lp152
I22598
a(lp153
I21503
aI22901
aaa(lp154
I22627
a(lp155
I28470
aI36525
aaa(lp156
I22579
a(lp157
I28029
aaa(lp158
I22727
a(lp159
I23729
aI25524
aaa(lp160
I22726
a(lp161
I28415
aaa(lp162
I22680
a(lp163
I22663
aaa(lp164
I22663
a(lp165
I33189
aaa(lp166
I22671
a(lp167
I22670
aI28101
aaa(lp168
I22670
a(lp169
I21053
aaa(lp170
I22710
a(lp171
I21178
aI21334
aI24363
aI22930
aaa(lp172
I22691
a(lp173
I27420
aaa(lp174
I22688
a(lp175
I23683
aaa(lp176
I22703
a(lp177
I27497
aaa(lp178
I22701
a(lp179
I22702
aaa(lp180
I22700
a(lp181
I27398
aaa(lp182
I22878
a(lp183
I27498
aaa(lp184
I22877
a(lp185
I27499
aaa(lp186
I22901
a(lp187
I28403
aI33574
aaa(lp188
I22900
a(lp189
I22727
aaa(lp190
I22898
a(lp191
I21044
aaa(lp192
I22804
a(lp193
I22712
aI27461
aaa(lp194
I22813
a(lp195
I22688
aI27435
aaa(lp196
I22810
a(lp197
I22878
aI22877
aaa(lp198
I22809
a(lp199
I22703
aaa(lp200
I22844
a(lp201
I28635
aaa(lp202
I22932
a(lp203
I22931
aI22929
aaa(lp204
I22931
a(lp205
I21178
aI21334
aI24363
aI22710
aI22930
aaa(lp206
I22930
a(lp207
I22929
aaa(lp208
I22929
a(lp209
I21486
aI21484
aI22932
aaa(lp210
I22926
a(lp211
I23541
aI27876
aaa(lp212
I23131
a(lp213
I23130
aaa(lp214
I23130
a(lp215
I21168
aI28169
aaa(lp216
I23158
a(lp217
I23157
aaa(lp218
I23157
a(lp219
I25378
aaa(lp220
I23155
a(lp221
I22629
aI23154
aaa(lp222
I23154
a(lp223
I28102
aaa(lp224
I23048
a(lp225
I27876
aaa(lp226
I23387
a(lp227
I21497
aI22844
aI28170
aaa(lp228
I23495
a(lp229
I21486
aI21484
aI22932
aaa(lp230
I23542
a(lp231
I25384
aaa(lp232
I23541
a(lp233
I22671
aI25559
aI25558
aI27886
aaa(lp234
I25266
a(lp235
I24052
aI25447
aaa(lp236
I25265
a(lp237
I25264
aaa(lp238
I25264
a(lp239
I22841
aaa(lp240
I25250
a(lp241
I24065
aaa(lp242
I25459
a(lp243
I25376
aI25387
aI28021
aI28483
aaa(lp244
I25466
a(lp245
I23155
aI25459
aaa(lp246
I25464
a(lp247
I23131
aI25447
aaa(lp248
I25447
a(lp249
I24492
aI28145
aaa(lp250
I25445
a(lp251
I25266
aaa(lp252
I25347
a(lp253
I25346
aI25359
aaa(lp254
I25346
a(lp255
I25345
aI25359
aI25358
aI28264
aaa(lp256
I25345
a(lp257
I25359
aaa(lp258
I25344
a(lp259
I25359
aaa(lp260
I25359
a(lp261
I25338
aI25347
aI25346
aI25345
aI25358
aI28122
aI28103
aI28264
aaa(lp262
I25358
a(lp263
I25359
aaa(lp264
I25381
a(lp265
I25380
aaa(lp266
I25380
a(lp267
I27122
aaa(lp268
I25379
a(lp269
I21174
aaa(lp270
I25378
a(lp271
I28410
aI28408
aaa(lp272
I25377
a(lp273
I28410
aI28409
aaa(lp274
I25388
a(lp275
I25376
aI25387
aI28021
aI28483
aaa(lp276
I25387
a(lp277
I25388
aI25386
aaa(lp278
I25386
a(lp279
I28425
aI27095
aaa(lp280
I25385
a(lp281
I21500
aI22598
aaa(lp282
I25384
a(lp283
I22671
aI25559
aI25558
aI27886
aaa(lp284
I25559
a(lp285
I25384
aaa(lp286
I25558
a(lp287
I25556
aI25555
aaa(lp288
I25556
a(lp289
I25558
aI25555
aaa(lp290
I25555
a(lp291
I22671
aI25559
aI25558
aI27886
aaa(lp292
I25567
a(lp293
I25566
aaa(lp294
I25566
a(lp295
I24491
aI25540
aaa(lp296
I25568
a(lp297
I25583
aaa(lp298
I25583
a(lp299
I22727
aaa(lp300
I25482
a(lp301
I28283
aI35982
aaa(lp302
I25481
a(lp303
I27894
aaa(lp304
I25480
a(lp305
I28283
aaa(lp306
I25526
a(lp307
I28501
aI26934
aaa(lp308
I25524
a(lp309
I25526
aaa(lp310
I25514
a(lp311
I25513
aaa(lp312
I25513
a(lp313
I27808
aaa(lp314
I25512
a(lp315
I25514
aaa(lp316
I27761
a(lp317
I25384
aaa(lp318
I27665
a(lp319
I27664
aI26933
aaa(lp320
I27664
a(lp321
I27665
aI27679
aaa(lp322
I27679
a(lp323
I26853
aaa(lp324
I27677
a(lp325
I27665
aI27679
aaa(lp326
I27676
a(lp327
I23743
aaa(lp328
I27675
a(lp329
I23743
aaa(lp330
I27674
a(lp331
I28508
aaa(lp332
I27673
a(lp333
I27672
aaa(lp334
I27672
a(lp335
I27677
aI26853
aaa(lp336
I27655
a(lp337
I25388
aaa(lp338
I27682
a(lp339
I28112
aI28126
aaa(lp340
I27867
a(lp341
I27866
aaa(lp342
I27866
a(lp343
I25466
aI25526
aaa(lp344
I27894
a(lp345
I22726
aI28034
aaa(lp346
I27876
a(lp347
I21053
aI28401
aaa(lp348
I27874
a(lp349
I27682
aaa(lp350
I27886
a(lp351
I23541
aI27682
aaa(lp352
I27794
a(lp353
I25512
aaa(lp354
I27779
a(lp355
I22595
aaa(lp356
I27812
a(lp357
I28415
aaa(lp358
I27811
a(lp359
I22629
aaa(lp360
I27810
a(lp361
I27809
aaa(lp362
I27809
a(lp363
I25378
aI27822
aaa(lp364
I27808
a(lp365
I27823
aaa(lp366
I27823
a(lp367
I25568
aI28191
aI28190
aaa(lp368
I27822
a(lp369
I27821
aaa(lp370
I27821
a(lp371
I28292
aaa(lp372
I27820
a(lp373
I25512
aaa(lp374
I28021
a(lp375
I23155
aI25459
aaa(lp376
I28029
a(lp377
I22926
aaa(lp378
I28123
a(lp379
I21044
aaa(lp380
I28120
a(lp381
I25338
aI25347
aI28122
aI28103
aaa(lp382
I28103
a(lp383
I21176
aI28120
aaa(lp384
I28102
a(lp385
I28101
aaa(lp386
I28101
a(lp387
I22671
aI25559
aI25558
aI27886
aaa(lp388
I28100
a(lp389
I28099
aaa(lp390
I28099
a(lp391
I21168
aaa(lp392
I28145
a(lp393
I27794
aaa(lp394
I28036
a(lp395
I28035
aaa(lp396
I28035
a(lp397
I22900
aaa(lp398
I28034
a(lp399
I28033
aI28032
aaa(lp400
I28033
a(lp401
I36524
aaa(lp402
I28032
a(lp403
I33568
aaa(lp404
I28072
a(lp405
I27867
aaa(lp406
I28283
a(lp407
I25481
aI28545
aaa(lp408
I28282
a(lp409
I28281
aaa(lp410
I28281
a(lp411
I27894
aaa(lp412
I28259
a(lp413
I22595
aaa(lp414
I28264
a(lp415
I25377
aaa(lp416
I28191
a(lp417
I36524
aaa(lp418
I28190
a(lp419
I33568
aaa(lp420
I28175
a(lp421
I22579
aI23048
aaa(lp422
I28171
a(lp423
I28170
aaa(lp424
I28170
a(lp425
I28259
aI28635
aaa(lp426
I28169
a(lp427
I28171
aaa(lp428
I28168
a(lp429
I25266
aaa(lp430
I28219
a(lp431
I21450
aI23387
aaa(lp432
I28218
a(lp433
I21450
aI23387
aaa(lp434
I28217
a(lp435
I21450
aI23387
aaa(lp436
I28200
a(lp437
I22627
aI27867
aaa(lp438
I28369
a(lp439
I25384
aaa(lp440
I28403
a(lp441
I28402
aaa(lp442
I28402
a(lp443
I28362
aaa(lp444
I28401
a(lp445
I22598
aaa(lp446
I28415
a(lp447
I27809
aaa(lp448
I28413
a(lp449
I25381
aI36002
aaa(lp450
I28410
a(lp451
I25377
aI33569
aaa(lp452
I28409
a(lp453
I28292
aI36024
aaa(lp454
I28408
a(lp455
I28409
aaa(lp456
I28292
a(lp457
I28100
aI28413
aaa(lp458
I28501
a(lp459
I28509
aaa(lp460
I28509
a(lp461
I27675
aI27674
aaa(lp462
I28508
a(lp463
I25480
aI27655
aaa(lp464
I28521
a(lp465
I25250
aI28520
aaa(lp466
I28520
a(lp467
I27820
aI28521
aaa(lp468
I28425
a(lp469
I25481
aaa(lp470
I28470
a(lp471
I22900
aaa(lp472
I28469
a(lp473
I24065
aI25265
aaa(lp474
I28635
a(lp475
I23134
aI27779
aI28387
aaa(lp476
I28545
a(lp477
I27673
aaa(lp478
I28558
a(lp479
I21450
aI23387
aaa(lp480
I28557
a(lp481
I21450
aI23387
aaa(lp482
I26854
a(lp483
I27676
aI26853
aI26920
aaa(lp484
I26853
a(lp485
I26854
aaa(lp486
I26934
a(lp487
I27664
aI26933
aaa(lp488
I26933
a(lp489
I28509
aaa(lp490
I26920
a(lp491
I28508
aaa(lp492
I27095
a(lp493
I27673
aaa(lp494
I27123
a(lp495
I27122
aaa(lp496
I27122
a(lp497
I23718
aI27123
aaa(lp498
I27285
a(lp499
I20905
aI27284
aI27282
aaa(lp500
I27284
a(lp501
I24206
aI27285
aaa(lp502
I27282
a(lp503
I22557
aaa(lp504
I27295
a(lp505
I23216
aI27294
aI27292
aI27276
aI27303
aI27431
aaa(lp506
I27294
a(lp507
I27295
aI27292
aI27290
aaa(lp508
I27293
a(lp509
I27295
aI27294
aI27292
aaa(lp510
I27292
a(lp511
I27293
aaa(lp512
I27290
a(lp513
I27398
aaa(lp514
I27319
a(lp515
I27318
aaa(lp516
I27318
a(lp517
I27499
aaa(lp518
I27461
a(lp519
I20875
aI20919
aI23834
aI27607
aaa(lp520
I27500
a(lp521
I22804
aaa(lp522
I27499
a(lp523
I23683
aaa(lp524
I27498
a(lp525
I27418
aaa(lp526
I27497
a(lp527
I27496
aaa(lp528
I27496
a(lp529
I27415
aaa(lp530
I27415
a(lp531
I27414
aaa(lp532
I27412
a(lp533
I27411
aaa(lp534
I27411
a(lp535
I27319
aI27397
aaa(lp536
I27418
a(lp537
I20910
aI27453
aaa(lp538
I27417
a(lp539
I27416
aaa(lp540
I27416
a(lp541
I22815
aI22813
aaa(lp542
I27399
a(lp543
I22700
aI36534
aaa(lp544
I27398
a(lp545
I24325
aI24322
aaa(lp546
I27397
a(lp547
I22701
aI36306
aaa(lp548
I27396
a(lp549
I22810
aI22809
aaa(lp550
I27453
a(lp551
I27420
aaa(lp552
I27431
a(lp553
I27293
aaa(lp554
I27436
a(lp555
I23833
aaa(lp556
I27435
a(lp557
I22703
aaa(lp558
I27607
a(lp559
I23833
aaa(lp560
I31104
a(lp561
I25250
aI28520
aaa(lp562
I31119
a(lp563
I28469
aaa(lp564
I33189
a(lp565
I28029
aaa(lp566
I33292
a(lp567
I21029
aI23158
aI33291
aaa(lp568
I33291
a(lp569
I33292
aaa(lp570
I33530
a(lp571
I23158
aaa(lp572
I33574
a(lp573
I27810
aI28036
aaa(lp574
I33569
a(lp575
I25345
aI25359
aI25358
aI28264
aaa(lp576
I33568
a(lp577
I22629
aaa(lp578
I33675
a(lp579
I27396
aaa(lp580
I35982
a(lp581
I25388
aaa(lp582
I36024
a(lp583
I28100
aaa(lp584
I36002
a(lp585
I28171
aaa(lp586
I36306
a(lp587
I27418
aaa(lp588
I36305
a(lp589
I27498
aaa(lp590
I36534
a(lp591
I27295
aI27290
aaa(lp592
I36525
a(lp593
I27812
aI27811
aaa.